target datalayout = "e-m:e-p270:32:32-p271:32:32-p272:64:64-i64:64-i128:128-f80:128-n8:16:32:64-S128"
target triple = "x86_64-pc-linux-gnu"

%struct.ossl_quic_tx_packetiser_st = type { %struct.ossl_quic_tx_packetiser_args_st, ptr, i64, ptr, ptr, %struct.quic_fifd_st, [3 x i64], %struct.OSSL_TIME, i64, i16, %struct.ossl_quic_frame_conn_close_st, i64, i64, [4 x %struct.txp_el], ptr, ptr, ptr, ptr, ptr }
%struct.ossl_quic_tx_packetiser_args_st = type { %struct.quic_conn_id_st, %struct.quic_conn_id_st, %union.bio_addr_st, i32, ptr, ptr, ptr, ptr, ptr, ptr, ptr, ptr, ptr, ptr, ptr, ptr, ptr, ptr, ptr, i32, [3 x ptr] }
%struct.quic_conn_id_st = type { i8, [20 x i8] }
%union.bio_addr_st = type { %struct.sockaddr_in6, [84 x i8] }
%struct.sockaddr_in6 = type { i16, i16, i32, %struct.in6_addr, i32 }
%struct.in6_addr = type { %union.anon }
%union.anon = type { [4 x i32] }
%struct.quic_fifd_st = type { ptr, ptr, ptr, ptr, ptr, ptr, ptr, ptr, ptr, ptr, ptr, ptr, ptr }
%struct.OSSL_TIME = type { i64 }
%struct.ossl_quic_frame_conn_close_st = type { i8, i64, i64, ptr, i64 }
%struct.txp_el = type { ptr, i64, ptr, i64 }
%struct.quic_stream_st = type { %struct.quic_stream_list_node_st, %struct.quic_stream_list_node_st, %struct.quic_stream_list_node_st, ptr, i64, i64, i64, i64, i64, i64, i64, ptr, ptr, %struct.quic_txfc_st, %struct.quic_rxfc_st, i64 }
%struct.quic_stream_list_node_st = type { ptr, ptr }
%struct.quic_txfc_st = type { ptr, i64, i64, i8 }
%struct.quic_rxfc_st = type { i64, i64, i64, i64, i64, i64, i64, %struct.OSSL_TIME, ptr, ptr, ptr, i8, i8, i8, i8 }
%struct.quic_txpim_pkt_st = type { %struct.ossl_ackm_tx_pkt_st, ptr, ptr, i8, i8 }
%struct.ossl_ackm_tx_pkt_st = type { i64, i64, %struct.OSSL_TIME, i64, i8, ptr, ptr, ptr, ptr, %struct.anon.0, ptr, ptr }
%struct.anon.0 = type { ptr, ptr }

; Function Attrs: nounwind uwtable
define internal void @on_regen_notify(i64 noundef %0, i64 noundef %1, ptr noundef %2, ptr noundef %3) #0 {
  %5 = alloca i64, align 8
  %6 = alloca i64, align 8
  %7 = alloca ptr, align 8
  %8 = alloca ptr, align 8
  %9 = alloca ptr, align 8
  %10 = alloca ptr, align 8
  %11 = alloca i32, align 4
  %12 = alloca ptr, align 8
  %13 = alloca ptr, align 8
  store i64 %0, ptr %5, align 8, !tbaa !28
  store i64 %1, ptr %6, align 8, !tbaa !28
  store ptr %2, ptr %7, align 8, !tbaa !72
  store ptr %3, ptr %8, align 8, !tbaa !53
  call void @llvm.lifetime.start.p0(i64 8, ptr %9) #7
  %14 = load ptr, ptr %8, align 8, !tbaa !53
  store ptr %14, ptr %9, align 8, !tbaa !3
  %15 = load i64, ptr %5, align 8, !tbaa !28
  switch i64 %15, label %132 [
    i64 30, label %16
    i64 16, label %22
    i64 18, label %28
    i64 19, label %34
    i64 3, label %40
    i64 17, label %64
    i64 5, label %88
    i64 4, label %108
  ]

16:                                               ; preds = %4
  %17 = load ptr, ptr %9, align 8, !tbaa !3
  %18 = getelementptr inbounds nuw %struct.ossl_quic_tx_packetiser_st, ptr %17, i32 0, i32 9
  %19 = load i16, ptr %18, align 8
  %20 = and i16 %19, -2
  %21 = or i16 %20, 1
  store i16 %21, ptr %18, align 8
  br label %133

22:                                               ; preds = %4
  %23 = load ptr, ptr %9, align 8, !tbaa !3
  %24 = getelementptr inbounds nuw %struct.ossl_quic_tx_packetiser_st, ptr %23, i32 0, i32 9
  %25 = load i16, ptr %24, align 8
  %26 = and i16 %25, -3
  %27 = or i16 %26, 2
  store i16 %27, ptr %24, align 8
  br label %133

28:                                               ; preds = %4
  %29 = load ptr, ptr %9, align 8, !tbaa !3
  %30 = getelementptr inbounds nuw %struct.ossl_quic_tx_packetiser_st, ptr %29, i32 0, i32 9
  %31 = load i16, ptr %30, align 8
  %32 = and i16 %31, -5
  %33 = or i16 %32, 4
  store i16 %33, ptr %30, align 8
  br label %133

34:                                               ; preds = %4
  %35 = load ptr, ptr %9, align 8, !tbaa !3
  %36 = getelementptr inbounds nuw %struct.ossl_quic_tx_packetiser_st, ptr %35, i32 0, i32 9
  %37 = load i16, ptr %36, align 8
  %38 = and i16 %37, -9
  %39 = or i16 %38, 8
  store i16 %39, ptr %36, align 8
  br label %133

40:                                               ; preds = %4
  %41 = load ptr, ptr %7, align 8, !tbaa !72
  %42 = getelementptr inbounds nuw %struct.quic_txpim_pkt_st, ptr %41, i32 0, i32 0
  %43 = getelementptr inbounds nuw %struct.ossl_ackm_tx_pkt_st, ptr %42, i32 0, i32 4
  %44 = load i8, ptr %43, align 8
  %45 = and i8 %44, 3
  %46 = zext i8 %45 to i32
  %47 = zext i32 %46 to i64
  %48 = shl i64 1, %47
  %49 = load ptr, ptr %9, align 8, !tbaa !3
  %50 = getelementptr inbounds nuw %struct.ossl_quic_tx_packetiser_st, ptr %49, i32 0, i32 9
  %51 = load i16, ptr %50, align 8
  %52 = lshr i16 %51, 4
  %53 = and i16 %52, 7
  %54 = zext i16 %53 to i32
  %55 = zext i32 %54 to i64
  %56 = or i64 %55, %48
  %57 = trunc i64 %56 to i32
  %58 = trunc i32 %57 to i16
  %59 = load i16, ptr %50, align 8
  %60 = and i16 %58, 7
  %61 = shl i16 %60, 4
  %62 = and i16 %59, -113
  %63 = or i16 %62, %61
  store i16 %63, ptr %50, align 8
  br label %133

64:                                               ; preds = %4
  call void @llvm.lifetime.start.p0(i64 8, ptr %10) #7
  %65 = load ptr, ptr %9, align 8, !tbaa !3
  %66 = getelementptr inbounds nuw %struct.ossl_quic_tx_packetiser_st, ptr %65, i32 0, i32 0
  %67 = getelementptr inbounds nuw %struct.ossl_quic_tx_packetiser_args_st, ptr %66, i32 0, i32 8
  %68 = load ptr, ptr %67, align 8, !tbaa !62
  %69 = load i64, ptr %6, align 8, !tbaa !28
  %70 = call ptr @ossl_quic_stream_map_get_by_id(ptr noundef %68, i64 noundef %69)
  store ptr %70, ptr %10, align 8, !tbaa !63
  %71 = load ptr, ptr %10, align 8, !tbaa !63
  %72 = icmp eq ptr %71, null
  br i1 %72, label %73, label %74

73:                                               ; preds = %64
  store i32 1, ptr %11, align 4
  br label %85

74:                                               ; preds = %64
  %75 = load ptr, ptr %10, align 8, !tbaa !63
  %76 = getelementptr inbounds nuw %struct.quic_stream_st, ptr %75, i32 0, i32 15
  %77 = load i64, ptr %76, align 8
  %78 = and i64 %77, -8589934593
  %79 = or i64 %78, 8589934592
  store i64 %79, ptr %76, align 8
  %80 = load ptr, ptr %9, align 8, !tbaa !3
  %81 = getelementptr inbounds nuw %struct.ossl_quic_tx_packetiser_st, ptr %80, i32 0, i32 0
  %82 = getelementptr inbounds nuw %struct.ossl_quic_tx_packetiser_args_st, ptr %81, i32 0, i32 8
  %83 = load ptr, ptr %82, align 8, !tbaa !62
  %84 = load ptr, ptr %10, align 8, !tbaa !63
  call void @ossl_quic_stream_map_update_state(ptr noundef %83, ptr noundef %84)
  store i32 0, ptr %11, align 4
  br label %85

85:                                               ; preds = %74, %73
  call void @llvm.lifetime.end.p0(i64 8, ptr %10) #7
  %86 = load i32, ptr %11, align 4
  switch i32 %86, label %134 [
    i32 0, label %87
  ]

87:                                               ; preds = %85
  br label %133

88:                                               ; preds = %4
  call void @llvm.lifetime.start.p0(i64 8, ptr %12) #7
  %89 = load ptr, ptr %9, align 8, !tbaa !3
  %90 = getelementptr inbounds nuw %struct.ossl_quic_tx_packetiser_st, ptr %89, i32 0, i32 0
  %91 = getelementptr inbounds nuw %struct.ossl_quic_tx_packetiser_args_st, ptr %90, i32 0, i32 8
  %92 = load ptr, ptr %91, align 8, !tbaa !62
  %93 = load i64, ptr %6, align 8, !tbaa !28
  %94 = call ptr @ossl_quic_stream_map_get_by_id(ptr noundef %92, i64 noundef %93)
  store ptr %94, ptr %12, align 8, !tbaa !63
  %95 = load ptr, ptr %12, align 8, !tbaa !63
  %96 = icmp eq ptr %95, null
  br i1 %96, label %97, label %98

97:                                               ; preds = %88
  store i32 1, ptr %11, align 4
  br label %105

98:                                               ; preds = %88
  %99 = load ptr, ptr %9, align 8, !tbaa !3
  %100 = getelementptr inbounds nuw %struct.ossl_quic_tx_packetiser_st, ptr %99, i32 0, i32 0
  %101 = getelementptr inbounds nuw %struct.ossl_quic_tx_packetiser_args_st, ptr %100, i32 0, i32 8
  %102 = load ptr, ptr %101, align 8, !tbaa !62
  %103 = load ptr, ptr %12, align 8, !tbaa !63
  %104 = call i32 @ossl_quic_stream_map_schedule_stop_sending(ptr noundef %102, ptr noundef %103)
  store i32 0, ptr %11, align 4
  br label %105

105:                                              ; preds = %98, %97
  call void @llvm.lifetime.end.p0(i64 8, ptr %12) #7
  %106 = load i32, ptr %11, align 4
  switch i32 %106, label %134 [
    i32 0, label %107
  ]

107:                                              ; preds = %105
  br label %133

108:                                              ; preds = %4
  call void @llvm.lifetime.start.p0(i64 8, ptr %13) #7
  %109 = load ptr, ptr %9, align 8, !tbaa !3
  %110 = getelementptr inbounds nuw %struct.ossl_quic_tx_packetiser_st, ptr %109, i32 0, i32 0
  %111 = getelementptr inbounds nuw %struct.ossl_quic_tx_packetiser_args_st, ptr %110, i32 0, i32 8
  %112 = load ptr, ptr %111, align 8, !tbaa !62
  %113 = load i64, ptr %6, align 8, !tbaa !28
  %114 = call ptr @ossl_quic_stream_map_get_by_id(ptr noundef %112, i64 noundef %113)
  store ptr %114, ptr %13, align 8, !tbaa !63
  %115 = load ptr, ptr %13, align 8, !tbaa !63
  %116 = icmp eq ptr %115, null
  br i1 %116, label %117, label %118

117:                                              ; preds = %108
  store i32 1, ptr %11, align 4
  br label %129

118:                                              ; preds = %108
  %119 = load ptr, ptr %13, align 8, !tbaa !63
  %120 = getelementptr inbounds nuw %struct.quic_stream_st, ptr %119, i32 0, i32 15
  %121 = load i64, ptr %120, align 8
  %122 = and i64 %121, -34359738369
  %123 = or i64 %122, 34359738368
  store i64 %123, ptr %120, align 8
  %124 = load ptr, ptr %9, align 8, !tbaa !3
  %125 = getelementptr inbounds nuw %struct.ossl_quic_tx_packetiser_st, ptr %124, i32 0, i32 0
  %126 = getelementptr inbounds nuw %struct.ossl_quic_tx_packetiser_args_st, ptr %125, i32 0, i32 8
  %127 = load ptr, ptr %126, align 8, !tbaa !62
  %128 = load ptr, ptr %13, align 8, !tbaa !63
  call void @ossl_quic_stream_map_update_state(ptr noundef %127, ptr noundef %128)
  store i32 0, ptr %11, align 4
  br label %129

129:                                              ; preds = %118, %117
  call void @llvm.lifetime.end.p0(i64 8, ptr %13) #7
  %130 = load i32, ptr %11, align 4
  switch i32 %130, label %134 [
    i32 0, label %131
  ]

131:                                              ; preds = %129
  br label %133

132:                                              ; preds = %4
  br label %133

133:                                              ; preds = %132, %131, %107, %87, %40, %34, %28, %22, %16
  store i32 0, ptr %11, align 4
  br label %134

134:                                              ; preds = %133, %129, %105, %85
  call void @llvm.lifetime.end.p0(i64 8, ptr %9) #7
  %135 = load i32, ptr %11, align 4
  switch i32 %135, label %137 [
    i32 0, label %136
    i32 1, label %136
  ]

136:                                              ; preds = %134, %134
  ret void

137:                                              ; preds = %134
  unreachable
}