; Function Attrs: nounwind uwtable
define internal void @on_regen_notify(i64 noundef %0, i64 noundef %1, ptr noundef readonly captures(none) %2, ptr noundef captures(none) %3) #3 {
  switch i64 %0, label %.critedge [
    i64 30, label %5
    i64 16, label %9
    i64 18, label %13
    i64 19, label %17
    i64 3, label %21
    i64 17, label %31
    i64 5, label %40
    i64 4, label %47
  ]

5:                                                ; preds = %4
  %6 = getelementptr inbounds nuw i8, ptr %3, i64 488
  %7 = load i16, ptr %6, align 8
  %8 = or i16 %7, 1
  store i16 %8, ptr %6, align 8
  br label %.critedge

9:                                                ; preds = %4
  %10 = getelementptr inbounds nuw i8, ptr %3, i64 488
  %11 = load i16, ptr %10, align 8
  %12 = or i16 %11, 2
  store i16 %12, ptr %10, align 8
  br label %.critedge

13:                                               ; preds = %4
  %14 = getelementptr inbounds nuw i8, ptr %3, i64 488
  %15 = load i16, ptr %14, align 8
  %16 = or i16 %15, 4
  store i16 %16, ptr %14, align 8
  br label %.critedge

17:                                               ; preds = %4
  %18 = getelementptr inbounds nuw i8, ptr %3, i64 488
  %19 = load i16, ptr %18, align 8
  %20 = or i16 %19, 8
  store i16 %20, ptr %18, align 8
  br label %.critedge

21:                                               ; preds = %4
  %22 = getelementptr inbounds nuw i8, ptr %2, i64 32
  %23 = load i8, ptr %22, align 8
  %24 = and i8 %23, 3
  %25 = zext nneg i8 %24 to i16
  %26 = getelementptr inbounds nuw i8, ptr %3, i64 488
  %27 = load i16, ptr %26, align 8
  %28 = shl nuw nsw i16 16, %25
  %29 = and i16 %28, 112
  %30 = or i16 %29, %27
  store i16 %30, ptr %26, align 8
  br label %.critedge

31:                                               ; preds = %4
  %32 = getelementptr inbounds nuw i8, ptr %3, i64 192
  %33 = load ptr, ptr %32, align 8, !tbaa !57
  %34 = tail call ptr @ossl_quic_stream_map_get_by_id(ptr noundef %33, i64 noundef %1) #10
  %.not33 = icmp eq ptr %34, null
  br i1 %.not33, label %.critedge, label %35

35:                                               ; preds = %31
  %36 = getelementptr inbounds nuw i8, ptr %34, i64 256
  %37 = load i64, ptr %36, align 8
  %38 = or i64 %37, 8589934592
  store i64 %38, ptr %36, align 8
  %39 = load ptr, ptr %32, align 8, !tbaa !57
  tail call void @ossl_quic_stream_map_update_state(ptr noundef %39, ptr noundef nonnull %34) #10
  br label %.critedge

40:                                               ; preds = %4
  %41 = getelementptr inbounds nuw i8, ptr %3, i64 192
  %42 = load ptr, ptr %41, align 8, !tbaa !57
  %43 = tail call ptr @ossl_quic_stream_map_get_by_id(ptr noundef %42, i64 noundef %1) #10
  %.not32 = icmp eq ptr %43, null
  br i1 %.not32, label %.critedge, label %44

44:                                               ; preds = %40
  %45 = load ptr, ptr %41, align 8, !tbaa !57
  %46 = tail call i32 @ossl_quic_stream_map_schedule_stop_sending(ptr noundef %45, ptr noundef nonnull %43) #10
  br label %.critedge

47:                                               ; preds = %4
  %48 = getelementptr inbounds nuw i8, ptr %3, i64 192
  %49 = load ptr, ptr %48, align 8, !tbaa !57
  %50 = tail call ptr @ossl_quic_stream_map_get_by_id(ptr noundef %49, i64 noundef %1) #10
  %.not = icmp eq ptr %50, null
  br i1 %.not, label %.critedge, label %51

51:                                               ; preds = %47
  %52 = getelementptr inbounds nuw i8, ptr %50, i64 256
  %53 = load i64, ptr %52, align 8
  %54 = or i64 %53, 34359738368
  store i64 %54, ptr %52, align 8
  %55 = load ptr, ptr %48, align 8, !tbaa !57
  tail call void @ossl_quic_stream_map_update_state(ptr noundef %55, ptr noundef nonnull %50) #10
  br label %.critedge

.critedge:                                        ; preds = %51, %44, %35, %47, %40, %31, %5, %9, %13, %17, %21, %4
  ret void
}